; Function Attrs: mustprogress uwtable
define void @_ZN15TCPStreamDialog26on_actionZoomOut_triggeredEv(ptr nocapture noundef nonnull readonly align 8 dereferenceable(584) %0) local_unnamed_addr #2 align 2 {
  %2 = getelementptr inbounds i8, ptr %0, i64 64
  %3 = load ptr, ptr %2, align 8
  %4 = getelementptr inbounds i8, ptr %3, i64 232
  %5 = load ptr, ptr %4, align 8
  %6 = tail call noundef ptr @_ZNK11QCustomPlot8axisRectEi(ptr noundef nonnull align 8 dereferenceable(513) %5, i32 noundef 0)
  %7 = tail call noundef double @_ZN11QCPAxisRect15rangeZoomFactorEN2Qt11OrientationE(ptr noundef nonnull align 8 dereferenceable(432) %6, i32 noundef 1)
  %8 = tail call noundef ptr @_ZNK11QCustomPlot8axisRectEi(ptr noundef nonnull align 8 dereferenceable(513) %5, i32 noundef 0)
  %9 = tail call noundef double @_ZN11QCPAxisRect15rangeZoomFactorEN2Qt11OrientationE(ptr noundef nonnull align 8 dereferenceable(432) %8, i32 noundef 2)
  %reciprocal.i = fdiv double 1.000000e+00, %7
  %reciprocal13.i = fdiv double 1.000000e+00, %9
  %10 = getelementptr inbounds i8, ptr %5, i64 40
  %11 = load ptr, ptr %10, align 8
  %12 = getelementptr inbounds i8, ptr %11, i64 304
  %.sroa.0.0.copyload.i.i = load double, ptr %12, align 8
  %.sroa.2.0..sroa_idx.i.i = getelementptr inbounds i8, ptr %11, i64 312
  %.sroa.2.0.copyload.i.i = load double, ptr %.sroa.2.0..sroa_idx.i.i, align 8
  %13 = fadd double %.sroa.0.0.copyload.i.i, %.sroa.2.0.copyload.i.i
  %14 = fmul double %13, 5.000000e-01
  tail call void @_ZN7QCPAxis10scaleRangeEdd(ptr noundef nonnull align 8 dereferenceable(472) %11, double noundef %reciprocal.i, double noundef %14)
  %15 = getelementptr inbounds i8, ptr %5, i64 48
  %16 = load ptr, ptr %15, align 8
  %17 = getelementptr inbounds i8, ptr %16, i64 304
  %.sroa.0.0.copyload.i14.i = load double, ptr %17, align 8
  %.sroa.2.0..sroa_idx.i15.i = getelementptr inbounds i8, ptr %16, i64 312
  %.sroa.2.0.copyload.i16.i = load double, ptr %.sroa.2.0..sroa_idx.i15.i, align 8
  %18 = fadd double %.sroa.0.0.copyload.i14.i, %.sroa.2.0.copyload.i16.i
  %19 = fmul double %18, 5.000000e-01
  tail call void @_ZN7QCPAxis10scaleRangeEdd(ptr noundef nonnull align 8 dereferenceable(472) %16, double noundef %reciprocal13.i, double noundef %19)
  tail call void @_ZN11QCustomPlot6replotENS_15RefreshPriorityE(ptr noundef nonnull align 8 dereferenceable(513) %5, i32 noundef 2)
  ret void
}